target datalayout = "e-m:e-p270:32:32-p271:32:32-p272:64:64-i64:64-i128:128-f80:128-n8:16:32:64-S128"
target triple = "x86_64-pc-linux-gnu"

%"class.std::__1::__shared_count" = type { ptr, i64 }
%"class.std::__1::__shared_weak_count" = type { %"class.std::__1::__shared_count", i64 }

; Function Attrs: noinline noreturn nounwind uwtable
define linkonce_odr hidden void @__clang_call_terminate(ptr noundef %0) #5 comdat {
  %2 = call ptr @__cxa_begin_catch(ptr %0) #8
  call void @_ZSt9terminatev() #10
  unreachable
}

; Function Attrs: inlinehint mustprogress nounwind uwtable
define linkonce_odr hidden noundef i64 @_ZNSt3__134__libcpp_atomic_refcount_decrementB8ne210000IlEET_RS1_(ptr noundef nonnull align 8 dereferenceable(8) %0) #4 comdat {
  %2 = alloca ptr, align 8
  %3 = alloca i64, align 8
  %4 = alloca i64, align 8
  store ptr %0, ptr %2, align 8, !tbaa !14
  %5 = load ptr, ptr %2, align 8, !tbaa !14
  store i64 -1, ptr %3, align 8, !tbaa !16
  %6 = load i64, ptr %3, align 8
  %7 = atomicrmw add ptr %5, i64 %6 acq_rel, align 8
  %8 = add i64 %7, %6
  store i64 %8, ptr %4, align 8
  %9 = load i64, ptr %4, align 8, !tbaa !16
  ret i64 %9
}

; Function Attrs: inlinehint mustprogress nounwind uwtable
define internal noundef i64 @_ZNSt3__112_GLOBAL__N_120__libcpp_atomic_loadB8ne210000IlEET_PKS2_i(ptr noundef %0, i32 noundef %1) #4 {
  %3 = alloca ptr, align 8
  %4 = alloca i32, align 4
  %5 = alloca i64, align 8
  store ptr %0, ptr %3, align 8, !tbaa !14
  store i32 %1, ptr %4, align 4, !tbaa !20
  %6 = load ptr, ptr %3, align 8, !tbaa !14
  %7 = load i32, ptr %4, align 4, !tbaa !20
  switch i32 %7, label %8 [
    i32 1, label %10
    i32 2, label %10
    i32 5, label %12
  ]

8:                                                ; preds = %2
  %9 = load atomic i64, ptr %6 monotonic, align 8
  store i64 %9, ptr %5, align 8
  br label %14

10:                                               ; preds = %2, %2
  %11 = load atomic i64, ptr %6 acquire, align 8
  store i64 %11, ptr %5, align 8
  br label %14

12:                                               ; preds = %2
  %13 = load atomic i64, ptr %6 seq_cst, align 8
  store i64 %13, ptr %5, align 8
  br label %14

14:                                               ; preds = %12, %10, %8
  %15 = load i64, ptr %5, align 8, !tbaa !16
  ret i64 %15
}

; Function Attrs: mustprogress nounwind uwtable
define dso_local void @_ZNSt3__119__shared_weak_count14__release_weakEv(ptr noundef nonnull align 8 dereferenceable(24) %0) #1 align 2 personality ptr @__gxx_personality_v0 {
  %2 = alloca ptr, align 8
  store ptr %0, ptr %2, align 8, !tbaa !12
  %3 = load ptr, ptr %2, align 8
  %4 = getelementptr inbounds nuw %"class.std::__1::__shared_weak_count", ptr %3, i32 0, i32 1
  %5 = invoke noundef i64 @_ZNSt3__112_GLOBAL__N_120__libcpp_atomic_loadB8ne210000IlEET_PKS2_i(ptr noundef %4, i32 noundef 2)
          to label %6 unwind label %22

6:                                                ; preds = %1
  %7 = icmp eq i64 %5, 0
  br i1 %7, label %8, label %12

8:                                                ; preds = %6
  %9 = load ptr, ptr %3, align 8, !tbaa !18
  %10 = getelementptr inbounds ptr, ptr %9, i64 4
  %11 = load ptr, ptr %10, align 8
  call void %11(ptr noundef nonnull align 8 dereferenceable(24) %3) #8
  br label %21

12:                                               ; preds = %6
  %13 = getelementptr inbounds nuw %"class.std::__1::__shared_weak_count", ptr %3, i32 0, i32 1
  %14 = call noundef i64 @_ZNSt3__134__libcpp_atomic_refcount_decrementB8ne210000IlEET_RS1_(ptr noundef nonnull align 8 dereferenceable(8) %13) #8
  %15 = icmp eq i64 %14, -1
  br i1 %15, label %16, label %20

16:                                               ; preds = %12
  %17 = load ptr, ptr %3, align 8, !tbaa !18
  %18 = getelementptr inbounds ptr, ptr %17, i64 4
  %19 = load ptr, ptr %18, align 8
  call void %19(ptr noundef nonnull align 8 dereferenceable(24) %3) #8
  br label %20

20:                                               ; preds = %16, %12
  br label %21

21:                                               ; preds = %20, %8
  ret void

22:                                               ; preds = %1
  %23 = landingpad { ptr, i32 }
          catch ptr null
  %24 = extractvalue { ptr, i32 } %23, 0
  call void @__clang_call_terminate(ptr %24) #10
  unreachable
}