; Function Attrs: mustprogress nounwind uwtable
define dso_local void @_ZNSt3__119__shared_weak_count14__release_weakEv(ptr noundef nonnull align 8 dereferenceable(24) %0) local_unnamed_addr #1 align 2 personality ptr @__gxx_personality_v0 {
  %2 = getelementptr inbounds nuw i8, ptr %0, i64 16
  %3 = load atomic i64, ptr %2 acquire, align 8
  %4 = icmp eq i64 %3, 0
  br i1 %4, label %.sink.split, label %5

5:                                                ; preds = %1
  %6 = atomicrmw add ptr %2, i64 -1 acq_rel, align 8
  %7 = icmp eq i64 %6, 0
  br i1 %7, label %.sink.split, label %11

.sink.split:                                      ; preds = %5, %1
  %8 = load ptr, ptr %0, align 8, !tbaa !5
  %9 = getelementptr inbounds nuw i8, ptr %8, i64 32
  %10 = load ptr, ptr %9, align 8
  tail call void %10(ptr noundef nonnull align 8 dereferenceable(24) %0) #12
  br label %11

11:                                               ; preds = %.sink.split, %5
  ret void
}